; Function Attrs: mustprogress nofree norecurse nosync nounwind memory(read, argmem: readwrite, inaccessiblemem: none) uwtable
define void @_ZN6Assimp13ObjFileParser12copyNextWordEPcm(ptr nocapture noundef nonnull align 8 dereferenceable(4176) %this, ptr nocapture noundef writeonly %pBuffer, i64 noundef %length) local_unnamed_addr #11 align 2 {
entry:
  %agg.tmp.sroa.0.0.copyload = load ptr, ptr %this, align 8
  %m_DataItEnd = getelementptr inbounds i8, ptr %this, i64 8
  %agg.tmp2.sroa.0.0.copyload = load ptr, ptr %m_DataItEnd, align 8
  %incdec.ptr.i.i.i = getelementptr inbounds i8, ptr %agg.tmp2.sroa.0.0.copyload, i64 -1
  %cmp.i.i3.i = icmp eq ptr %agg.tmp.sroa.0.0.copyload, %agg.tmp2.sroa.0.0.copyload
  %cmp.i1.i4.i = icmp eq ptr %incdec.ptr.i.i.i, %agg.tmp.sroa.0.0.copyload
  %retval.0.i5.i = select i1 %cmp.i.i3.i, i1 true, i1 %cmp.i1.i4.i
  br i1 %retval.0.i5.i, label %_ZN6Assimp11getNextWordIN9__gnu_cxx17__normal_iteratorIPcSt6vectorIcSaIcEEEEEET_S8_S8_.exit, label %while.body.i

while.body.i:                                     ; preds = %entry, %if.end.i
  %pBuffer.sroa.0.06.i = phi ptr [ %incdec.ptr.i.i, %if.end.i ], [ %agg.tmp.sroa.0.0.copyload, %entry ]
  %0 = load i8, ptr %pBuffer.sroa.0.06.i, align 1
  switch i8 %0, label %_ZN6Assimp11getNextWordIN9__gnu_cxx17__normal_iteratorIPcSt6vectorIcSaIcEEEEEET_S8_S8_.exit [
    i8 32, label %if.end.i
    i8 9, label %if.end.i
  ]

if.end.i:                                         ; preds = %while.body.i, %while.body.i
  %incdec.ptr.i.i = getelementptr inbounds i8, ptr %pBuffer.sroa.0.06.i, i64 1
  %cmp.i.i.i = icmp eq ptr %incdec.ptr.i.i, %agg.tmp2.sroa.0.0.copyload
  %cmp.i1.i.i = icmp eq ptr %incdec.ptr.i.i.i, %incdec.ptr.i.i
  %retval.0.i.i = select i1 %cmp.i.i.i, i1 true, i1 %cmp.i1.i.i
  br i1 %retval.0.i.i, label %_ZN6Assimp11getNextWordIN9__gnu_cxx17__normal_iteratorIPcSt6vectorIcSaIcEEEEEET_S8_S8_.exit, label %while.body.i, !llvm.loop !19

_ZN6Assimp11getNextWordIN9__gnu_cxx17__normal_iteratorIPcSt6vectorIcSaIcEEEEEET_S8_S8_.exit: ; preds = %while.body.i, %if.end.i, %entry
  %pBuffer.sroa.0.0.lcssa.i = phi ptr [ %agg.tmp.sroa.0.0.copyload, %entry ], [ %incdec.ptr.i.i, %if.end.i ], [ %pBuffer.sroa.0.06.i, %while.body.i ]
  store ptr %pBuffer.sroa.0.0.lcssa.i, ptr %this, align 8
  %1 = load i8, ptr %pBuffer.sroa.0.0.lcssa.i, align 1
  %cmp = icmp eq i8 %1, 92
  br i1 %cmp, label %if.then, label %if.end

if.then:                                          ; preds = %_ZN6Assimp11getNextWordIN9__gnu_cxx17__normal_iteratorIPcSt6vectorIcSaIcEEEEEET_S8_S8_.exit
  %incdec.ptr.i5 = getelementptr inbounds i8, ptr %pBuffer.sroa.0.0.lcssa.i, i64 2
  store ptr %incdec.ptr.i5, ptr %this, align 8
  %cmp.i.i3.i7 = icmp eq ptr %incdec.ptr.i5, %agg.tmp2.sroa.0.0.copyload
  %cmp.i1.i4.i8 = icmp eq ptr %incdec.ptr.i.i.i, %incdec.ptr.i5
  %retval.0.i5.i9 = select i1 %cmp.i.i3.i7, i1 true, i1 %cmp.i1.i4.i8
  br i1 %retval.0.i5.i9, label %_ZN6Assimp11getNextWordIN9__gnu_cxx17__normal_iteratorIPcSt6vectorIcSaIcEEEEEET_S8_S8_.exit18, label %while.body.i10

while.body.i10:                                   ; preds = %if.then, %if.end.i12
  %pBuffer.sroa.0.06.i11 = phi ptr [ %incdec.ptr.i.i13, %if.end.i12 ], [ %incdec.ptr.i5, %if.then ]
  %2 = load i8, ptr %pBuffer.sroa.0.06.i11, align 1
  switch i8 %2, label %_ZN6Assimp11getNextWordIN9__gnu_cxx17__normal_iteratorIPcSt6vectorIcSaIcEEEEEET_S8_S8_.exit18 [
    i8 32, label %if.end.i12
    i8 9, label %if.end.i12
  ]

if.end.i12:                                       ; preds = %while.body.i10, %while.body.i10
  %incdec.ptr.i.i13 = getelementptr inbounds i8, ptr %pBuffer.sroa.0.06.i11, i64 1
  %cmp.i.i.i14 = icmp eq ptr %incdec.ptr.i.i13, %agg.tmp2.sroa.0.0.copyload
  %cmp.i1.i.i15 = icmp eq ptr %incdec.ptr.i.i.i, %incdec.ptr.i.i13
  %retval.0.i.i16 = select i1 %cmp.i.i.i14, i1 true, i1 %cmp.i1.i.i15
  br i1 %retval.0.i.i16, label %_ZN6Assimp11getNextWordIN9__gnu_cxx17__normal_iteratorIPcSt6vectorIcSaIcEEEEEET_S8_S8_.exit18, label %while.body.i10, !llvm.loop !19

_ZN6Assimp11getNextWordIN9__gnu_cxx17__normal_iteratorIPcSt6vectorIcSaIcEEEEEET_S8_S8_.exit18: ; preds = %while.body.i10, %if.end.i12, %if.then
  %pBuffer.sroa.0.0.lcssa.i17 = phi ptr [ %incdec.ptr.i5, %if.then ], [ %incdec.ptr.i.i13, %if.end.i12 ], [ %pBuffer.sroa.0.06.i11, %while.body.i10 ]
  store ptr %pBuffer.sroa.0.0.lcssa.i17, ptr %this, align 8
  br label %if.end

if.end:                                           ; preds = %_ZN6Assimp11getNextWordIN9__gnu_cxx17__normal_iteratorIPcSt6vectorIcSaIcEEEEEET_S8_S8_.exit18, %_ZN6Assimp11getNextWordIN9__gnu_cxx17__normal_iteratorIPcSt6vectorIcSaIcEEEEEET_S8_S8_.exit
  %3 = phi ptr [ %pBuffer.sroa.0.0.lcssa.i17, %_ZN6Assimp11getNextWordIN9__gnu_cxx17__normal_iteratorIPcSt6vectorIcSaIcEEEEEET_S8_S8_.exit18 ], [ %pBuffer.sroa.0.0.lcssa.i, %_ZN6Assimp11getNextWordIN9__gnu_cxx17__normal_iteratorIPcSt6vectorIcSaIcEEEEEET_S8_S8_.exit ]
  %cmp.i.not20 = icmp eq ptr %3, %agg.tmp2.sroa.0.0.copyload
  br i1 %cmp.i.not20, label %while.end, label %land.rhs.lr.ph

land.rhs.lr.ph:                                   ; preds = %if.end
  %4 = add i64 %length, -2
  br label %land.rhs

land.rhs:                                         ; preds = %land.rhs.lr.ph, %if.end32
  %5 = phi ptr [ %3, %land.rhs.lr.ph ], [ %incdec.ptr.i19, %if.end32 ]
  %index.021 = phi i64 [ 0, %land.rhs.lr.ph ], [ %inc, %if.end32 ]
  %6 = load i8, ptr %5, align 1
  switch i8 %6, label %while.body [
    i8 32, label %while.end
    i8 9, label %while.end
    i8 13, label %while.end
    i8 10, label %while.end
    i8 0, label %while.end
    i8 12, label %while.end
  ]

while.body:                                       ; preds = %land.rhs
  %arrayidx = getelementptr inbounds i8, ptr %pBuffer, i64 %index.021
  store i8 %6, ptr %arrayidx, align 1
  %inc = add i64 %index.021, 1
  %cmp30 = icmp eq i64 %index.021, %4
  br i1 %cmp30, label %while.end, label %if.end32

if.end32:                                         ; preds = %while.body
  %7 = load ptr, ptr %this, align 8
  %incdec.ptr.i19 = getelementptr inbounds i8, ptr %7, i64 1
  store ptr %incdec.ptr.i19, ptr %this, align 8
  %8 = load ptr, ptr %m_DataItEnd, align 8
  %cmp.i.not = icmp eq ptr %incdec.ptr.i19, %8
  br i1 %cmp.i.not, label %while.end, label %land.rhs, !llvm.loop !20

while.end:                                        ; preds = %while.body, %if.end32, %land.rhs, %land.rhs, %land.rhs, %land.rhs, %land.rhs, %land.rhs, %if.end
  %index.1 = phi i64 [ 0, %if.end ], [ %index.021, %land.rhs ], [ %index.021, %land.rhs ], [ %index.021, %land.rhs ], [ %index.021, %land.rhs ], [ %index.021, %land.rhs ], [ %index.021, %land.rhs ], [ %inc, %if.end32 ], [ %inc, %while.body ]
  %arrayidx35 = getelementptr inbounds i8, ptr %pBuffer, i64 %index.1
  store i8 0, ptr %arrayidx35, align 1
  ret void
}